; Function Attrs: mustprogress nounwind uwtable
define hidden void @_ZN14ZRelocateQueue5clearEv(ptr noundef nonnull align 8 dereferenceable(120) %0) local_unnamed_addr #1 align 2 {
  %2 = getelementptr inbounds i8, ptr %0, i64 88
  %3 = load i32, ptr %2, align 8
  %4 = icmp eq i32 %3, 0
  br i1 %4, label %7, label %_ZN18ZArrayIteratorImplIP11ZForwardingLb0EEC2EPK18GrowableArrayCHeapIS1_L8MEMFLAGS5EE.exit

_ZN18ZArrayIteratorImplIP11ZForwardingLb0EEC2EPK18GrowableArrayCHeapIS1_L8MEMFLAGS5EE.exit: ; preds = %1
  store i32 0, ptr %2, align 8
  %5 = getelementptr inbounds i8, ptr %0, i64 116
  %6 = tail call noundef i32 asm sideeffect "lock xaddl $0,($2)", "=r,0,r,~{cc},~{memory},~{dirflag},~{fpsr},~{flags}"(i32 -1, ptr nonnull %5) #14, !srcloc !6
  br label %7

7:                                                ; preds = %1, %_ZN18ZArrayIteratorImplIP11ZForwardingLb0EEC2EPK18GrowableArrayCHeapIS1_L8MEMFLAGS5EE.exit
  ret void
}